target datalayout = "e-m:e-p270:32:32-p271:32:32-p272:64:64-i64:64-i128:128-f80:128-n8:16:32:64-S128"
target triple = "x86_64-pc-linux-gnu"

@.str.77 = private unnamed_addr constant [4 x i8] c"mca\00", align 1
@.str.78 = private unnamed_addr constant [5 x i8] c"\22%s\22\00", align 1

; Function Attrs: nounwind uwtable
define void @prte_plm_base_wrap_args(ptr noundef %0) #0 {
  %2 = alloca ptr, align 8
  %3 = alloca i32, align 4
  %4 = alloca ptr, align 8
  %5 = alloca i32, align 4
  store ptr %0, ptr %2, align 8, !tbaa !221
  call void @llvm.lifetime.start.p0(i64 4, ptr %3) #13
  call void @llvm.lifetime.start.p0(i64 8, ptr %4) #13
  store i32 0, ptr %3, align 4, !tbaa !29
  br label %6

6:                                                ; preds = %90, %1
  %7 = load ptr, ptr %2, align 8, !tbaa !221
  %8 = icmp ne ptr null, %7
  br i1 %8, label %9, label %16

9:                                                ; preds = %6
  %10 = load ptr, ptr %2, align 8, !tbaa !221
  %11 = load i32, ptr %3, align 4, !tbaa !29
  %12 = sext i32 %11 to i64
  %13 = getelementptr inbounds ptr, ptr %10, i64 %12
  %14 = load ptr, ptr %13, align 8, !tbaa !7
  %15 = icmp ne ptr null, %14
  br label %16

16:                                               ; preds = %9, %6
  %17 = phi i1 [ false, %6 ], [ %15, %9 ]
  br i1 %17, label %18, label %93

18:                                               ; preds = %16
  %19 = load ptr, ptr %2, align 8, !tbaa !221
  %20 = load i32, ptr %3, align 4, !tbaa !29
  %21 = sext i32 %20 to i64
  %22 = getelementptr inbounds ptr, ptr %19, i64 %21
  %23 = load ptr, ptr %22, align 8, !tbaa !7
  %24 = call i64 @strlen(ptr noundef %23) #12
  %25 = icmp ugt i64 %24, 3
  br i1 %25, label %26, label %89

26:                                               ; preds = %18
  %27 = load ptr, ptr %2, align 8, !tbaa !221
  %28 = load i32, ptr %3, align 4, !tbaa !29
  %29 = sext i32 %28 to i64
  %30 = getelementptr inbounds ptr, ptr %27, i64 %29
  %31 = load ptr, ptr %30, align 8, !tbaa !7
  %32 = load ptr, ptr %2, align 8, !tbaa !221
  %33 = load i32, ptr %3, align 4, !tbaa !29
  %34 = sext i32 %33 to i64
  %35 = getelementptr inbounds ptr, ptr %32, i64 %34
  %36 = load ptr, ptr %35, align 8, !tbaa !7
  %37 = call i64 @strlen(ptr noundef %36) #12
  %38 = getelementptr inbounds nuw i8, ptr %31, i64 %37
  %39 = getelementptr inbounds i8, ptr %38, i64 -3
  %40 = call i32 @strcmp(ptr noundef %39, ptr noundef @.str.77) #12
  %41 = icmp eq i32 0, %40
  br i1 %41, label %42, label %89

42:                                               ; preds = %26
  %43 = load ptr, ptr %2, align 8, !tbaa !221
  %44 = load i32, ptr %3, align 4, !tbaa !29
  %45 = add nsw i32 %44, 1
  %46 = sext i32 %45 to i64
  %47 = getelementptr inbounds ptr, ptr %43, i64 %46
  %48 = load ptr, ptr %47, align 8, !tbaa !7
  %49 = icmp eq ptr null, %48
  br i1 %49, label %58, label %50

50:                                               ; preds = %42
  %51 = load ptr, ptr %2, align 8, !tbaa !221
  %52 = load i32, ptr %3, align 4, !tbaa !29
  %53 = add nsw i32 %52, 2
  %54 = sext i32 %53 to i64
  %55 = getelementptr inbounds ptr, ptr %51, i64 %54
  %56 = load ptr, ptr %55, align 8, !tbaa !7
  %57 = icmp eq ptr null, %56
  br i1 %57, label %58, label %59

58:                                               ; preds = %50, %42
  store i32 1, ptr %5, align 4
  br label %94

59:                                               ; preds = %50
  %60 = load i32, ptr %3, align 4, !tbaa !29
  %61 = add nsw i32 %60, 2
  store i32 %61, ptr %3, align 4, !tbaa !29
  %62 = load ptr, ptr %2, align 8, !tbaa !221
  %63 = load i32, ptr %3, align 4, !tbaa !29
  %64 = sext i32 %63 to i64
  %65 = getelementptr inbounds ptr, ptr %62, i64 %64
  %66 = load ptr, ptr %65, align 8, !tbaa !7
  %67 = getelementptr inbounds i8, ptr %66, i64 0
  %68 = load i8, ptr %67, align 1, !tbaa !136
  %69 = sext i8 %68 to i32
  %70 = icmp eq i32 34, %69
  br i1 %70, label %71, label %72

71:                                               ; preds = %59
  br label %90

72:                                               ; preds = %59
  %73 = load ptr, ptr %2, align 8, !tbaa !221
  %74 = load i32, ptr %3, align 4, !tbaa !29
  %75 = sext i32 %74 to i64
  %76 = getelementptr inbounds ptr, ptr %73, i64 %75
  %77 = load ptr, ptr %76, align 8, !tbaa !7
  %78 = call i32 (ptr, ptr, ...) @pmix_asprintf(ptr noundef %4, ptr noundef @.str.78, ptr noundef %77)
  %79 = load ptr, ptr %2, align 8, !tbaa !221
  %80 = load i32, ptr %3, align 4, !tbaa !29
  %81 = sext i32 %80 to i64
  %82 = getelementptr inbounds ptr, ptr %79, i64 %81
  %83 = load ptr, ptr %82, align 8, !tbaa !7
  call void @free(ptr noundef %83) #13
  %84 = load ptr, ptr %4, align 8, !tbaa !7
  %85 = load ptr, ptr %2, align 8, !tbaa !221
  %86 = load i32, ptr %3, align 4, !tbaa !29
  %87 = sext i32 %86 to i64
  %88 = getelementptr inbounds ptr, ptr %85, i64 %87
  store ptr %84, ptr %88, align 8, !tbaa !7
  br label %89

89:                                               ; preds = %72, %26, %18
  br label %90

90:                                               ; preds = %89, %71
  %91 = load i32, ptr %3, align 4, !tbaa !29
  %92 = add nsw i32 %91, 1
  store i32 %92, ptr %3, align 4, !tbaa !29
  br label %6, !llvm.loop !229

93:                                               ; preds = %16
  store i32 0, ptr %5, align 4
  br label %94

94:                                               ; preds = %93, %58
  call void @llvm.lifetime.end.p0(i64 8, ptr %4) #13
  call void @llvm.lifetime.end.p0(i64 4, ptr %3) #13
  %95 = load i32, ptr %5, align 4
  switch i32 %95, label %97 [
    i32 0, label %96
    i32 1, label %96
  ]

96:                                               ; preds = %94, %94
  ret void

97:                                               ; preds = %94
  unreachable
}