; Function Attrs: nounwind uwtable
define void @prte_plm_base_wrap_args(ptr noundef captures(address_is_null) %0) local_unnamed_addr #0 {
  %2 = alloca ptr, align 8
  call void @llvm.lifetime.start.p0(i64 8, ptr nonnull %2) #17
  %.not = icmp eq ptr %0, null
  br i1 %.not, label %.critedge, label %.lr.ph.split

.lr.ph.split:                                     ; preds = %1
  %3 = load ptr, ptr %0, align 8, !tbaa !3
  %.not2631 = icmp eq ptr %3, null
  br i1 %.not2631, label %.critedge, label %.lr.ph33

.lr.ph33:                                         ; preds = %.lr.ph.split, %30
  %4 = phi ptr [ %34, %30 ], [ %3, %.lr.ph.split ]
  %5 = phi ptr [ %33, %30 ], [ %0, %.lr.ph.split ]
  %.02732 = phi i32 [ %31, %30 ], [ 0, %.lr.ph.split ]
  %6 = call i64 @strlen(ptr noundef nonnull dereferenceable(1) %4) #16
  %7 = icmp ugt i64 %6, 3
  br i1 %7, label %8, label %30

8:                                                ; preds = %.lr.ph33
  %9 = getelementptr inbounds nuw i8, ptr %4, i64 %6
  %10 = getelementptr inbounds i8, ptr %9, i64 -3
  %11 = call i32 @strcmp(ptr noundef nonnull dereferenceable(1) %10, ptr noundef nonnull dereferenceable(4) @.str.77) #16
  %12 = icmp eq i32 %11, 0
  br i1 %12, label %13, label %30

13:                                               ; preds = %8
  %14 = getelementptr i8, ptr %5, i64 8
  %15 = load ptr, ptr %14, align 8, !tbaa !3
  %16 = icmp eq ptr %15, null
  br i1 %16, label %.critedge, label %17

17:                                               ; preds = %13
  %18 = add nsw i32 %.02732, 2
  %19 = sext i32 %18 to i64
  %20 = getelementptr inbounds ptr, ptr %0, i64 %19
  %21 = load ptr, ptr %20, align 8, !tbaa !3
  %22 = icmp eq ptr %21, null
  br i1 %22, label %.critedge, label %23

23:                                               ; preds = %17
  %24 = load i8, ptr %21, align 1, !tbaa !123
  %25 = icmp eq i8 %24, 34
  br i1 %25, label %30, label %26

26:                                               ; preds = %23
  %27 = call i32 (ptr, ptr, ...) @pmix_asprintf(ptr noundef nonnull %2, ptr noundef nonnull @.str.78, ptr noundef nonnull %21) #17
  %28 = load ptr, ptr %20, align 8, !tbaa !3
  call void @free(ptr noundef %28) #17
  %29 = load ptr, ptr %2, align 8, !tbaa !3
  store ptr %29, ptr %20, align 8, !tbaa !3
  br label %30

30:                                               ; preds = %.lr.ph33, %8, %26, %23
  %.1 = phi i32 [ %18, %23 ], [ %18, %26 ], [ %.02732, %8 ], [ %.02732, %.lr.ph33 ]
  %31 = add nsw i32 %.1, 1
  %32 = sext i32 %31 to i64
  %33 = getelementptr inbounds ptr, ptr %0, i64 %32
  %34 = load ptr, ptr %33, align 8, !tbaa !3
  %.not26 = icmp eq ptr %34, null
  br i1 %.not26, label %.critedge, label %.lr.ph33

.critedge:                                        ; preds = %17, %13, %30, %.lr.ph.split, %1
  call void @llvm.lifetime.end.p0(i64 8, ptr nonnull %2) #17
  ret void
}